; ModuleID = '61/1556.c'
source_filename = "61/1556.c"
target datalayout = "e-m:e-p270:32:32-p271:32:32-p272:64:64-i64:64-f80:128-n8:16:32:64-S128"
target triple = "x86_64-pc-linux-gnu"

@.str = private unnamed_addr constant [3 x i8] c"%d\00", align 1
@.str.1 = private unnamed_addr constant [4 x i8] c"%d\0A\00", align 1

; Function Attrs: noinline nounwind uwtable
define dso_local i32 @main() #0 {
  %1 = alloca i32, align 4
  %2 = alloca i32, align 4
  %3 = alloca i32, align 4
  %4 = alloca i32, align 4
  %5 = alloca i32, align 4
  store i32 0, i32* %1, align 4
  %6 = call i32 (i8*, ...) @__isoc99_scanf(i8* getelementptr inbounds ([3 x i8], [3 x i8]* @.str, i64 0, i64 0), i32* %3)
  store i32 0, i32* %5, align 4
  br label %7

7:                                                ; preds = %17, %0
  %8 = load i32, i32* %5, align 4
  %9 = load i32, i32* %3, align 4
  %10 = icmp slt i32 %8, %9
  br i1 %10, label %11, label %20

11:                                               ; preds = %7
  %12 = call i32 (i8*, ...) @__isoc99_scanf(i8* getelementptr inbounds ([3 x i8], [3 x i8]* @.str, i64 0, i64 0), i32* %2)
  %13 = load i32, i32* %2, align 4
  %14 = call i32 @F(i32 %13)
  store i32 %14, i32* %4, align 4
  %15 = load i32, i32* %4, align 4
  %16 = call i32 (i8*, ...) @printf(i8* getelementptr inbounds ([4 x i8], [4 x i8]* @.str.1, i64 0, i64 0), i32 %15)
  br label %17

17:                                               ; preds = %11
  %18 = load i32, i32* %5, align 4
  %19 = add nsw i32 %18, 1
  store i32 %19, i32* %5, align 4
  br label %7

20:                                               ; preds = %7
  ret i32 0
}

declare dso_local i32 @__isoc99_scanf(i8*, ...) #1

; Function Attrs: noinline nounwind uwtable
define dso_local i32 @F(i32 %0) #0 {
  %2 = alloca i32, align 4
  %3 = alloca i32, align 4
  %4 = alloca i32, align 4
  %5 = alloca i32, align 4
  %6 = alloca i32, align 4
  %7 = alloca i32, align 4
  %8 = alloca i32, align 4
  store i32 %0, i32* %3, align 4
  store i32 0, i32* %4, align 4
  %9 = load i32, i32* %3, align 4
  %10 = icmp eq i32 %9, 0
  br i1 %10, label %11, label %12

11:                                               ; preds = %1
  store i32 0, i32* %2, align 4
  br label %38

12:                                               ; preds = %1
  %13 = load i32, i32* %3, align 4
  %14 = icmp eq i32 %13, 1
  br i1 %14, label %18, label %15

15:                                               ; preds = %12
  %16 = load i32, i32* %3, align 4
  %17 = icmp eq i32 %16, 2
  br i1 %17, label %18, label %19

18:                                               ; preds = %15, %12
  store i32 1, i32* %2, align 4
  br label %38

19:                                               ; preds = %15
  %20 = load i32, i32* %3, align 4
  %21 = icmp sgt i32 %20, 2
  br i1 %21, label %22, label %38

22:                                               ; preds = %19
  store i32 1, i32* %5, align 4
  store i32 1, i32* %6, align 4
  store i32 0, i32* %7, align 4
  store i32 2, i32* %8, align 4
  br label %23

23:                                               ; preds = %33, %22
  %24 = load i32, i32* %8, align 4
  %25 = load i32, i32* %3, align 4
  %26 = icmp slt i32 %24, %25
  br i1 %26, label %27, label %36

27:                                               ; preds = %23
  %28 = load i32, i32* %5, align 4
  %29 = load i32, i32* %6, align 4
  %30 = add nsw i32 %28, %29
  store i32 %30, i32* %7, align 4
  %31 = load i32, i32* %6, align 4
  store i32 %31, i32* %5, align 4
  %32 = load i32, i32* %7, align 4
  store i32 %32, i32* %6, align 4
  br label %33

33:                                               ; preds = %27
  %34 = load i32, i32* %8, align 4
  %35 = add nsw i32 %34, 1
  store i32 %35, i32* %8, align 4
  br label %23

36:                                               ; preds = %23
  %37 = load i32, i32* %7, align 4
  store i32 %37, i32* %2, align 4
  br label %38

38:                                               ; preds = %11, %18, %36, %19
  %39 = load i32, i32* %2, align 4
  ret i32 %39
}

declare dso_local i32 @printf(i8*, ...) #1


!llvm.module.flags = !{!0}
!llvm.ident = !{!1}

!0 = !{i32 1, !"wchar_size", i32 4}
!1 = !{!"clang version 10.0.0-4ubuntu1 "}
